target datalayout = "e-m:e-p270:32:32-p271:32:32-p272:64:64-i64:64-i128:128-f80:128-n8:16:32:64-S128"
target triple = "x86_64-pc-linux-gnu"

%struct.GCtrace = type { %struct.GCRef, i8, i8, i16, i32, i32, %struct.GCRef, ptr, i32, i32, ptr, ptr, %struct.GCRef, %struct.MRef, i32, i32, ptr, i32, i16, i16, i16, i16, i16, i16, i16, i8, i8, i8, i8 }
%struct.GCRef = type { i64 }
%struct.MRef = type { i64 }
%struct.jit_State = type { %struct.GCtrace, ptr, ptr, ptr, ptr, ptr, ptr, i32, i32, i32, i8, i8, %struct.IRType1, i8, %struct.FoldState, ptr, i32, i32, i32, i32, i32, i32, i32, [1 x i32], [5 x %union.TValue], [3 x %union.TValue], ptr, i32, i32, i32, i32, ptr, ptr, i32, i32, i8, ptr, i32, i32, i16, [101 x i16], [258 x i32], [15 x i32], [16 x ptr], [64 x %struct.HotPenalty], i32, [16 x %struct.BPropEntry], i32, %struct.ScEvEntry, ptr, i32, i32, i32, ptr, i32, i32, ptr, ptr, ptr, i64, i64, %union.TValue, ptr, i32, i32 }
%struct.IRType1 = type { i8 }
%struct.FoldState = type { %union.IRIns, [2 x %union.IRIns], [2 x %union.IRIns] }
%union.IRIns = type { %struct.GCRef }
%struct.HotPenalty = type { %struct.MRef, i16, i16 }
%struct.BPropEntry = type { i16, i16, i32 }
%struct.ScEvEntry = type { %struct.MRef, i16, i16, i16, i16, %struct.IRType1, i8 }
%union.TValue = type { i64 }

; Function Attrs: alwaysinline nounwind uwtable
define internal i32 @jmprel(ptr noundef %0, ptr noundef %1, ptr noundef %2) #3 {
  %4 = alloca ptr, align 8
  %5 = alloca ptr, align 8
  %6 = alloca ptr, align 8
  %7 = alloca i64, align 8
  store ptr %0, ptr %4, align 8, !tbaa !4
  store ptr %1, ptr %5, align 8, !tbaa !13
  store ptr %2, ptr %6, align 8, !tbaa !13
  call void @llvm.lifetime.start.p0(i64 8, ptr %7) #11
  %8 = load ptr, ptr %6, align 8, !tbaa !13
  %9 = load ptr, ptr %5, align 8, !tbaa !13
  %10 = ptrtoint ptr %8 to i64
  %11 = ptrtoint ptr %9 to i64
  %12 = sub i64 %10, %11
  store i64 %12, ptr %7, align 8, !tbaa !26
  %13 = load i64, ptr %7, align 8, !tbaa !26
  %14 = trunc i64 %13 to i32
  call void @llvm.lifetime.end.p0(i64 8, ptr %7) #11
  ret i32 %14
}

; Function Attrs: alwaysinline nounwind uwtable
define internal ptr @exitstub_addr_(ptr noundef %0, i32 noundef %1) #3 {
  %3 = alloca ptr, align 8
  %4 = alloca i32, align 4
  store ptr %0, ptr %3, align 8, !tbaa !31
  store i32 %1, ptr %4, align 4, !tbaa !11
  %5 = load ptr, ptr %3, align 8, !tbaa !31
  %6 = load i32, ptr %4, align 4, !tbaa !11
  %7 = udiv i32 %6, 32
  %8 = zext i32 %7 to i64
  %9 = getelementptr inbounds nuw ptr, ptr %5, i64 %8
  %10 = load ptr, ptr %9, align 8, !tbaa !13
  %11 = load i32, ptr %4, align 4, !tbaa !11
  %12 = urem i32 %11, 32
  %13 = mul i32 4, %12
  %14 = zext i32 %13 to i64
  %15 = getelementptr inbounds nuw i8, ptr %10, i64 %14
  ret ptr %15
}

; Function Attrs: nounwind uwtable
define hidden void @lj_asm_patchexit(ptr noundef %0, ptr noundef %1, i32 noundef %2, ptr noundef %3) #0 {
  %5 = alloca ptr, align 8
  %6 = alloca ptr, align 8
  %7 = alloca i32, align 4
  %8 = alloca ptr, align 8
  %9 = alloca ptr, align 8
  %10 = alloca ptr, align 8
  %11 = alloca i32, align 4
  %12 = alloca ptr, align 8
  %13 = alloca ptr, align 8
  %14 = alloca ptr, align 8
  %15 = alloca i32, align 4
  %16 = alloca i64, align 8
  %17 = alloca i32, align 4
  store ptr %0, ptr %5, align 8, !tbaa !4
  store ptr %1, ptr %6, align 8, !tbaa !9
  store i32 %2, ptr %7, align 4, !tbaa !11
  store ptr %3, ptr %8, align 8, !tbaa !13
  call void @llvm.lifetime.start.p0(i64 8, ptr %9) #11
  %18 = load ptr, ptr %6, align 8, !tbaa !9
  %19 = getelementptr inbounds nuw %struct.GCtrace, ptr %18, i32 0, i32 16
  %20 = load ptr, ptr %19, align 8, !tbaa !15
  store ptr %20, ptr %9, align 8, !tbaa !13
  call void @llvm.lifetime.start.p0(i64 8, ptr %10) #11
  %21 = load ptr, ptr %5, align 8, !tbaa !4
  %22 = load ptr, ptr %9, align 8, !tbaa !13
  %23 = call ptr @lj_mcode_patch(ptr noundef %21, ptr noundef %22, i32 noundef 0)
  store ptr %23, ptr %10, align 8, !tbaa !13
  call void @llvm.lifetime.start.p0(i64 4, ptr %11) #11
  %24 = load ptr, ptr %6, align 8, !tbaa !9
  %25 = getelementptr inbounds nuw %struct.GCtrace, ptr %24, i32 0, i32 15
  %26 = load i32, ptr %25, align 4, !tbaa !24
  store i32 %26, ptr %11, align 4, !tbaa !11
  call void @llvm.lifetime.start.p0(i64 8, ptr %12) #11
  %27 = load ptr, ptr %5, align 8, !tbaa !4
  %28 = getelementptr inbounds nuw %struct.jit_State, ptr %27, i32 0, i32 43
  %29 = getelementptr inbounds [16 x ptr], ptr %28, i64 0, i64 0
  %30 = load i32, ptr %7, align 4, !tbaa !11
  %31 = call ptr @exitstub_addr_(ptr noundef %29, i32 noundef %30)
  %32 = getelementptr inbounds i8, ptr %31, i64 -6
  store ptr %32, ptr %12, align 8, !tbaa !13
  call void @llvm.lifetime.start.p0(i64 8, ptr %13) #11
  %33 = load ptr, ptr %9, align 8, !tbaa !13
  %34 = load i32, ptr %11, align 4, !tbaa !11
  %35 = zext i32 %34 to i64
  %36 = getelementptr inbounds nuw i8, ptr %33, i64 %35
  %37 = getelementptr inbounds i8, ptr %36, i64 -6
  store ptr %37, ptr %13, align 8, !tbaa !13
  call void @llvm.lifetime.start.p0(i64 8, ptr %14) #11
  store ptr null, ptr %14, align 8, !tbaa !13
  call void @llvm.lifetime.start.p0(i64 4, ptr %15) #11
  store i32 -3792, ptr %15, align 4, !tbaa !11
  %38 = load i32, ptr %11, align 4, !tbaa !11
  %39 = icmp ugt i32 %38, 5
  br i1 %39, label %40, label %78

40:                                               ; preds = %4
  %41 = load ptr, ptr %9, align 8, !tbaa !13
  %42 = load i32, ptr %11, align 4, !tbaa !11
  %43 = sub i32 %42, 5
  %44 = zext i32 %43 to i64
  %45 = getelementptr inbounds nuw i8, ptr %41, i64 %44
  %46 = load i8, ptr %45, align 1, !tbaa !25
  %47 = zext i8 %46 to i32
  %48 = icmp eq i32 %47, 233
  br i1 %48, label %49, label %78

49:                                               ; preds = %40
  %50 = load ptr, ptr %9, align 8, !tbaa !13
  %51 = load i32, ptr %11, align 4, !tbaa !11
  %52 = zext i32 %51 to i64
  %53 = getelementptr inbounds nuw i8, ptr %50, i64 %52
  %54 = getelementptr inbounds i8, ptr %53, i64 -6
  %55 = load ptr, ptr %9, align 8, !tbaa !13
  %56 = load i32, ptr %11, align 4, !tbaa !11
  %57 = zext i32 %56 to i64
  %58 = getelementptr inbounds nuw i8, ptr %55, i64 %57
  %59 = getelementptr inbounds i8, ptr %58, i64 -4
  %60 = load i32, ptr %59, align 4, !tbaa !11
  %61 = sext i32 %60 to i64
  %62 = getelementptr inbounds i8, ptr %54, i64 %61
  %63 = load ptr, ptr %12, align 8, !tbaa !13
  %64 = icmp eq ptr %62, %63
  br i1 %64, label %65, label %78

65:                                               ; preds = %49
  %66 = load ptr, ptr %5, align 8, !tbaa !4
  %67 = load ptr, ptr %9, align 8, !tbaa !13
  %68 = load i32, ptr %11, align 4, !tbaa !11
  %69 = zext i32 %68 to i64
  %70 = getelementptr inbounds nuw i8, ptr %67, i64 %69
  %71 = load ptr, ptr %8, align 8, !tbaa !13
  %72 = call i32 @jmprel(ptr noundef %66, ptr noundef %70, ptr noundef %71)
  %73 = load ptr, ptr %9, align 8, !tbaa !13
  %74 = load i32, ptr %11, align 4, !tbaa !11
  %75 = zext i32 %74 to i64
  %76 = getelementptr inbounds nuw i8, ptr %73, i64 %75
  %77 = getelementptr inbounds i8, ptr %76, i64 -4
  store i32 %72, ptr %77, align 4, !tbaa !11
  br label %78

78:                                               ; preds = %65, %49, %40, %4
  br label %79

79:                                               ; preds = %113, %78
  %80 = load ptr, ptr %9, align 8, !tbaa !13
  %81 = load ptr, ptr %13, align 8, !tbaa !13
  %82 = icmp ult ptr %80, %81
  br i1 %82, label %83, label %119

83:                                               ; preds = %79
  call void @llvm.lifetime.start.p0(i64 8, ptr %16) #11
  %84 = load ptr, ptr %9, align 8, !tbaa !13
  %85 = getelementptr inbounds i8, ptr %84, i64 0
  %86 = load i8, ptr %85, align 1, !tbaa !25
  %87 = zext i8 %86 to i32
  %88 = and i32 %87, 240
  %89 = icmp eq i32 %88, 64
  %90 = zext i1 %89 to i32
  %91 = sext i32 %90 to i64
  store i64 %91, ptr %16, align 8, !tbaa !26
  %92 = load ptr, ptr %9, align 8, !tbaa !13
  %93 = getelementptr inbounds i8, ptr %92, i64 2
  %94 = load i64, ptr %16, align 8, !tbaa !26
  %95 = getelementptr inbounds i8, ptr %93, i64 %94
  %96 = load i32, ptr %95, align 4, !tbaa !11
  %97 = load i32, ptr %15, align 4, !tbaa !11
  %98 = icmp eq i32 %96, %97
  br i1 %98, label %99, label %109

99:                                               ; preds = %83
  %100 = load ptr, ptr %9, align 8, !tbaa !13
  %101 = load i64, ptr %16, align 8, !tbaa !26
  %102 = add nsw i64 %101, 1
  %103 = sub nsw i64 %102, 1
  %104 = getelementptr inbounds i8, ptr %100, i64 %103
  %105 = load i8, ptr %104, align 1, !tbaa !25
  %106 = zext i8 %105 to i32
  %107 = icmp eq i32 %106, 199
  br i1 %107, label %108, label %109

108:                                              ; preds = %99
  store i32 2, ptr %17, align 4
  br label %110

109:                                              ; preds = %99, %83
  store i32 0, ptr %17, align 4
  br label %110

110:                                              ; preds = %109, %108
  call void @llvm.lifetime.end.p0(i64 8, ptr %16) #11
  %111 = load i32, ptr %17, align 4
  switch i32 %111, label %191 [
    i32 0, label %112
    i32 2, label %119
  ]

112:                                              ; preds = %110
  br label %113

113:                                              ; preds = %112
  %114 = load ptr, ptr %9, align 8, !tbaa !13
  %115 = call i32 @asm_x86_inslen(ptr noundef %114)
  %116 = load ptr, ptr %9, align 8, !tbaa !13
  %117 = zext i32 %115 to i64
  %118 = getelementptr inbounds nuw i8, ptr %116, i64 %117
  store ptr %118, ptr %9, align 8, !tbaa !13
  br label %79, !llvm.loop !27

119:                                              ; preds = %110, %79
  br label %120

120:                                              ; preds = %170, %119
  %121 = load ptr, ptr %9, align 8, !tbaa !13
  %122 = load ptr, ptr %13, align 8, !tbaa !13
  %123 = icmp ult ptr %121, %122
  br i1 %123, label %124, label %176

124:                                              ; preds = %120
  %125 = load ptr, ptr %9, align 8, !tbaa !13
  %126 = load i16, ptr %125, align 2, !tbaa !29
  %127 = zext i16 %126 to i32
  %128 = and i32 %127, 61695
  %129 = icmp eq i32 %128, 32783
  br i1 %129, label %130, label %151

130:                                              ; preds = %124
  %131 = load ptr, ptr %9, align 8, !tbaa !13
  %132 = load ptr, ptr %9, align 8, !tbaa !13
  %133 = getelementptr inbounds i8, ptr %132, i64 2
  %134 = load i32, ptr %133, align 4, !tbaa !11
  %135 = sext i32 %134 to i64
  %136 = getelementptr inbounds i8, ptr %131, i64 %135
  %137 = load ptr, ptr %12, align 8, !tbaa !13
  %138 = icmp eq ptr %136, %137
  br i1 %138, label %139, label %151

139:                                              ; preds = %130
  %140 = load ptr, ptr %9, align 8, !tbaa !13
  %141 = load ptr, ptr %14, align 8, !tbaa !13
  %142 = icmp ne ptr %140, %141
  br i1 %142, label %143, label %151

143:                                              ; preds = %139
  %144 = load ptr, ptr %5, align 8, !tbaa !4
  %145 = load ptr, ptr %9, align 8, !tbaa !13
  %146 = getelementptr inbounds i8, ptr %145, i64 6
  %147 = load ptr, ptr %8, align 8, !tbaa !13
  %148 = call i32 @jmprel(ptr noundef %144, ptr noundef %146, ptr noundef %147)
  %149 = load ptr, ptr %9, align 8, !tbaa !13
  %150 = getelementptr inbounds i8, ptr %149, i64 2
  store i32 %148, ptr %150, align 4, !tbaa !11
  br label %169

151:                                              ; preds = %139, %130, %124
  %152 = load ptr, ptr %9, align 8, !tbaa !13
  %153 = load i8, ptr %152, align 1, !tbaa !25
  %154 = zext i8 %153 to i32
  %155 = icmp eq i32 %154, 232
  br i1 %155, label %156, label %168

156:                                              ; preds = %151
  %157 = load ptr, ptr %9, align 8, !tbaa !13
  %158 = getelementptr inbounds i8, ptr %157, i64 5
  %159 = load ptr, ptr %9, align 8, !tbaa !13
  %160 = getelementptr inbounds i8, ptr %159, i64 1
  %161 = load i32, ptr %160, align 4, !tbaa !11
  %162 = sext i32 %161 to i64
  %163 = getelementptr inbounds i8, ptr %158, i64 %162
  %164 = icmp eq ptr %163, @lj_gc_step_jit
  br i1 %164, label %165, label %168

165:                                              ; preds = %156
  %166 = load ptr, ptr %9, align 8, !tbaa !13
  %167 = getelementptr inbounds i8, ptr %166, i64 7
  store ptr %167, ptr %14, align 8, !tbaa !13
  br label %168

168:                                              ; preds = %165, %156, %151
  br label %169

169:                                              ; preds = %168, %143
  br label %170

170:                                              ; preds = %169
  %171 = load ptr, ptr %9, align 8, !tbaa !13
  %172 = call i32 @asm_x86_inslen(ptr noundef %171)
  %173 = load ptr, ptr %9, align 8, !tbaa !13
  %174 = zext i32 %172 to i64
  %175 = getelementptr inbounds nuw i8, ptr %173, i64 %174
  store ptr %175, ptr %9, align 8, !tbaa !13
  br label %120, !llvm.loop !30

176:                                              ; preds = %120
  %177 = load ptr, ptr %6, align 8, !tbaa !9
  %178 = getelementptr inbounds nuw %struct.GCtrace, ptr %177, i32 0, i32 16
  %179 = load ptr, ptr %178, align 8, !tbaa !15
  %180 = load ptr, ptr %6, align 8, !tbaa !9
  %181 = getelementptr inbounds nuw %struct.GCtrace, ptr %180, i32 0, i32 16
  %182 = load ptr, ptr %181, align 8, !tbaa !15
  %183 = load ptr, ptr %6, align 8, !tbaa !9
  %184 = getelementptr inbounds nuw %struct.GCtrace, ptr %183, i32 0, i32 15
  %185 = load i32, ptr %184, align 4, !tbaa !24
  %186 = zext i32 %185 to i64
  %187 = getelementptr inbounds nuw i8, ptr %182, i64 %186
  call void @lj_mcode_sync(ptr noundef %179, ptr noundef %187)
  %188 = load ptr, ptr %5, align 8, !tbaa !4
  %189 = load ptr, ptr %10, align 8, !tbaa !13
  %190 = call ptr @lj_mcode_patch(ptr noundef %188, ptr noundef %189, i32 noundef 1)
  call void @llvm.lifetime.end.p0(i64 4, ptr %15) #11
  call void @llvm.lifetime.end.p0(i64 8, ptr %14) #11
  call void @llvm.lifetime.end.p0(i64 8, ptr %13) #11
  call void @llvm.lifetime.end.p0(i64 8, ptr %12) #11
  call void @llvm.lifetime.end.p0(i64 4, ptr %11) #11
  call void @llvm.lifetime.end.p0(i64 8, ptr %10) #11
  call void @llvm.lifetime.end.p0(i64 8, ptr %9) #11
  ret void

191:                                              ; preds = %110
  unreachable
}