; Function Attrs: nounwind uwtable
define hidden void @lj_asm_patchexit(ptr noundef %0, ptr noundef readonly captures(none) %1, i32 noundef %2, ptr noundef %3) local_unnamed_addr #0 {
  %5 = getelementptr inbounds nuw i8, ptr %1, i64 88
  %6 = load ptr, ptr %5, align 8, !tbaa !4
  %7 = tail call ptr @lj_mcode_patch(ptr noundef %0, ptr noundef %6, i32 noundef 0) #14
  %8 = getelementptr inbounds nuw i8, ptr %1, i64 84
  %9 = load i32, ptr %8, align 4, !tbaa !18
  %10 = getelementptr inbounds nuw i8, ptr %0, i64 1696
  %11 = lshr i32 %2, 5
  %12 = zext nneg i32 %11 to i64
  %13 = getelementptr inbounds nuw ptr, ptr %10, i64 %12
  %14 = load ptr, ptr %13, align 8, !tbaa !19
  %15 = shl i32 %2, 2
  %16 = and i32 %15, 124
  %17 = zext nneg i32 %16 to i64
  %18 = getelementptr inbounds nuw i8, ptr %14, i64 %17
  %19 = getelementptr inbounds i8, ptr %18, i64 -6
  %20 = zext i32 %9 to i64
  %21 = getelementptr inbounds nuw i8, ptr %6, i64 %20
  %22 = getelementptr inbounds i8, ptr %21, i64 -6
  %23 = icmp ugt i32 %9, 5
  br i1 %23, label %24, label %41

24:                                               ; preds = %4
  %25 = add i32 %9, -5
  %26 = zext i32 %25 to i64
  %27 = getelementptr inbounds nuw i8, ptr %6, i64 %26
  %28 = load i8, ptr %27, align 1, !tbaa !20
  %29 = icmp eq i8 %28, -23
  br i1 %29, label %30, label %41

30:                                               ; preds = %24
  %31 = getelementptr inbounds i8, ptr %21, i64 -4
  %32 = load i32, ptr %31, align 4, !tbaa !21
  %33 = sext i32 %32 to i64
  %34 = getelementptr inbounds i8, ptr %22, i64 %33
  %35 = icmp eq ptr %34, %19
  br i1 %35, label %36, label %41

36:                                               ; preds = %30
  %37 = ptrtoint ptr %3 to i64
  %38 = ptrtoint ptr %21 to i64
  %39 = sub i64 %37, %38
  %40 = trunc i64 %39 to i32
  store i32 %40, ptr %31, align 4, !tbaa !21
  br label %41

41:                                               ; preds = %36, %30, %24, %4
  %42 = icmp ult ptr %6, %22
  br i1 %42, label %.lr.ph, label %._crit_edge

.lr.ph:                                           ; preds = %41, %55
  %.05561 = phi ptr [ %58, %55 ], [ %6, %41 ]
  %43 = load i8, ptr %.05561, align 1, !tbaa !20
  %44 = and i8 %43, -16
  %45 = icmp eq i8 %44, 64
  %46 = zext i1 %45 to i64
  %47 = getelementptr inbounds nuw i8, ptr %.05561, i64 2
  %48 = getelementptr inbounds nuw i8, ptr %47, i64 %46
  %49 = load i32, ptr %48, align 4, !tbaa !21
  %50 = icmp eq i32 %49, -3792
  br i1 %50, label %51, label %55

51:                                               ; preds = %.lr.ph
  %52 = getelementptr inbounds nuw i8, ptr %.05561, i64 %46
  %53 = load i8, ptr %52, align 1, !tbaa !20
  %54 = icmp eq i8 %53, -57
  br i1 %54, label %._crit_edge, label %55

55:                                               ; preds = %.lr.ph, %51
  %56 = tail call fastcc i32 @asm_x86_inslen(ptr noundef nonnull %.05561)
  %57 = zext i32 %56 to i64
  %58 = getelementptr inbounds nuw i8, ptr %.05561, i64 %57
  %59 = icmp ult ptr %58, %22
  br i1 %59, label %.lr.ph, label %._crit_edge, !llvm.loop !22

._crit_edge:                                      ; preds = %55, %51, %41
  %.055.lcssa = phi ptr [ %6, %41 ], [ %.05561, %51 ], [ %58, %55 ]
  %60 = icmp ult ptr %.055.lcssa, %22
  br i1 %60, label %.lr.ph68, label %._crit_edge69

.lr.ph68:                                         ; preds = %._crit_edge
  %61 = ptrtoint ptr %3 to i64
  br label %62

62:                                               ; preds = %.lr.ph68, %88
  %.165 = phi ptr [ %.055.lcssa, %.lr.ph68 ], [ %91, %88 ]
  %.05664 = phi ptr [ null, %.lr.ph68 ], [ %.157, %88 ]
  %63 = load i16, ptr %.165, align 2
  %64 = and i16 %63, -3841
  %65 = icmp eq i16 %64, -32753
  br i1 %65, label %66, label %77

66:                                               ; preds = %62
  %67 = getelementptr inbounds nuw i8, ptr %.165, i64 2
  %68 = load i32, ptr %67, align 4, !tbaa !21
  %69 = sext i32 %68 to i64
  %70 = getelementptr inbounds i8, ptr %.165, i64 %69
  %71 = icmp ne ptr %70, %19
  %.not = icmp eq ptr %.165, %.05664
  %or.cond = select i1 %71, i1 true, i1 %.not
  br i1 %or.cond, label %77, label %72

72:                                               ; preds = %66
  %73 = getelementptr inbounds nuw i8, ptr %.165, i64 6
  %74 = ptrtoint ptr %73 to i64
  %75 = sub i64 %61, %74
  %76 = trunc i64 %75 to i32
  store i32 %76, ptr %67, align 4, !tbaa !21
  br label %88

77:                                               ; preds = %66, %62
  %78 = and i16 %63, 255
  %79 = icmp eq i16 %78, 232
  br i1 %79, label %80, label %88

80:                                               ; preds = %77
  %81 = getelementptr inbounds nuw i8, ptr %.165, i64 5
  %82 = getelementptr inbounds nuw i8, ptr %.165, i64 1
  %83 = load i32, ptr %82, align 4, !tbaa !21
  %84 = sext i32 %83 to i64
  %85 = getelementptr inbounds i8, ptr %81, i64 %84
  %86 = icmp eq ptr %85, @lj_gc_step_jit
  %87 = getelementptr inbounds nuw i8, ptr %.165, i64 7
  %spec.select = select i1 %86, ptr %87, ptr %.05664
  br label %88

88:                                               ; preds = %80, %72, %77
  %.157 = phi ptr [ %.05664, %72 ], [ %.05664, %77 ], [ %spec.select, %80 ]
  %89 = tail call fastcc i32 @asm_x86_inslen(ptr noundef nonnull %.165)
  %90 = zext i32 %89 to i64
  %91 = getelementptr inbounds nuw i8, ptr %.165, i64 %90
  %92 = icmp ult ptr %91, %22
  br i1 %92, label %62, label %._crit_edge69, !llvm.loop !24

._crit_edge69:                                    ; preds = %88, %._crit_edge
  %93 = load ptr, ptr %5, align 8, !tbaa !4
  %94 = load i32, ptr %8, align 4, !tbaa !18
  %95 = zext i32 %94 to i64
  %96 = getelementptr inbounds nuw i8, ptr %93, i64 %95
  tail call void @lj_mcode_sync(ptr noundef %93, ptr noundef %96) #14
  %97 = tail call ptr @lj_mcode_patch(ptr noundef %0, ptr noundef %7, i32 noundef 1) #14
  ret void
}